; Function Attrs: mustprogress nofree norecurse nosync nounwind sspstrong willreturn memory(argmem: readwrite) uwtable
define dso_local range(i32 0, 19) i32 @scsi_build_sense_buf(ptr noundef writeonly captures(none) %out_buf, i64 noundef %size, i24 %sense.coerce, i1 noundef zeroext %fixed_sense) local_unnamed_addr #4 {
entry:
  %buf = alloca [18 x i8], align 16
  %sense.sroa.0.0.extract.trunc = trunc i24 %sense.coerce to i8
  %sense.sroa.3.0.extract.shift = lshr i24 %sense.coerce, 8
  %sense.sroa.3.0.extract.trunc = trunc i24 %sense.sroa.3.0.extract.shift to i8
  call void @llvm.memset.p0.i64(ptr noundef nonnull align 16 dereferenceable(18) %buf, i8 0, i64 18, i1 false)
  br i1 %fixed_sense, label %if.then, label %if.else

if.then:                                          ; preds = %entry
  %buf.13.gep9.sroa_idx = getelementptr inbounds nuw i8, ptr %buf, i64 13
  %buf.7.buf.7.buf.7.buf.7.arrayidx2.sroa_idx = getelementptr inbounds nuw i8, ptr %buf, i64 7
  store i8 10, ptr %buf.7.buf.7.buf.7.buf.7.arrayidx2.sroa_idx, align 1
  %buf.12.buf.12.buf.12.buf.12.arrayidx3.sroa_idx = getelementptr inbounds nuw i8, ptr %buf, i64 12
  store i8 %sense.sroa.3.0.extract.trunc, ptr %buf.12.buf.12.buf.12.buf.12.arrayidx3.sroa_idx, align 4
  br label %if.end

if.else:                                          ; preds = %entry
  %buf.3.gep.sroa_idx = getelementptr inbounds nuw i8, ptr %buf, i64 3
  %buf.1.buf.1.buf.1.buf.1.arrayidx7.sroa_idx = getelementptr inbounds nuw i8, ptr %buf, i64 1
  store i8 %sense.sroa.0.0.extract.trunc, ptr %buf.1.buf.1.buf.1.buf.1.arrayidx7.sroa_idx, align 1
  br label %if.end

if.end:                                           ; preds = %if.else, %if.then
  %.sink8.sroa.phi = phi ptr [ %buf.3.gep.sroa_idx, %if.else ], [ %buf.13.gep9.sroa_idx, %if.then ]
  %.sink = phi i8 [ 114, %if.else ], [ 112, %if.then ]
  %sense.sroa.3.0.extract.trunc.sink = phi i8 [ %sense.sroa.3.0.extract.trunc, %if.else ], [ %sense.sroa.0.0.extract.trunc, %if.then ]
  %len.0 = phi i64 [ 8, %if.else ], [ 18, %if.then ]
  %sense.sroa.5.0.extract.shift = lshr i24 %sense.coerce, 16
  %sense.sroa.5.0.extract.trunc = trunc nuw i24 %sense.sroa.5.0.extract.shift to i8
  store i8 %sense.sroa.5.0.extract.trunc, ptr %.sink8.sroa.phi, align 1
  store i8 %.sink, ptr %buf, align 16
  %buf.2..sroa_idx = getelementptr inbounds nuw i8, ptr %buf, i64 2
  store i8 %sense.sroa.3.0.extract.trunc.sink, ptr %buf.2..sroa_idx, align 2
  %cond = tail call i64 @llvm.umin.i64(i64 %len.0, i64 %size)
  %conv13 = trunc nuw nsw i64 %cond to i32
  call void @llvm.memcpy.p0.p0.i64(ptr align 1 %out_buf, ptr nonnull align 16 %buf, i64 %cond, i1 false)
  ret i32 %conv13
}